; Function Attrs: nounwind uwtable
define hidden void @zif_xmlwriter_write_dtd_element(ptr noundef %0, ptr nocapture noundef writeonly %1) #0 {
  %3 = alloca ptr, align 8
  %4 = alloca ptr, align 8
  %5 = alloca i64, align 8
  %6 = alloca i64, align 8
  %7 = alloca ptr, align 8
  %8 = getelementptr inbounds i8, ptr %0, i64 32
  %9 = getelementptr inbounds i8, ptr %0, i64 44
  %10 = load i32, ptr %9, align 4
  %11 = getelementptr inbounds i8, ptr %0, i64 40
  %12 = load i8, ptr %11, align 8
  %13 = icmp eq i8 %12, 8
  %14 = select i1 %13, ptr %8, ptr null
  %15 = load ptr, ptr @xmlwriter_class_entry_ce, align 8
  %16 = call i32 (i32, ptr, ptr, ...) @zend_parse_method_parameters(i32 noundef %10, ptr noundef %14, ptr noundef nonnull @.str.8, ptr noundef nonnull %7, ptr noundef %15, ptr noundef nonnull %3, ptr noundef nonnull %5, ptr noundef nonnull %4, ptr noundef nonnull %6) #11
  %17 = icmp eq i32 %16, -1
  br i1 %17, label %18, label %21

18:                                               ; preds = %2
  %19 = load ptr, ptr getelementptr inbounds (%struct._zend_executor_globals, ptr @executor_globals, i64 0, i32 50), align 8
  %20 = icmp ne ptr %19, null
  call void @llvm.assume(i1 %20)
  br label %41

21:                                               ; preds = %2
  %22 = load ptr, ptr %7, align 8
  %23 = load ptr, ptr %22, align 8
  %24 = getelementptr inbounds i8, ptr %23, i64 -16
  %25 = load ptr, ptr %24, align 8
  %.not = icmp eq ptr %25, null
  br i1 %.not, label %26, label %29

26:                                               ; preds = %21
  call void (ptr, ptr, ...) @zend_throw_error(ptr noundef null, ptr noundef nonnull @.str.4) #11
  %27 = load ptr, ptr getelementptr inbounds (%struct._zend_executor_globals, ptr @executor_globals, i64 0, i32 50), align 8
  %28 = icmp ne ptr %27, null
  call void @llvm.assume(i1 %28)
  br label %41

29:                                               ; preds = %21
  %30 = load ptr, ptr %3, align 8
  %31 = call i32 @xmlValidateName(ptr noundef %30, i32 noundef 0) #11
  %.not8 = icmp eq i32 %31, 0
  %32 = load ptr, ptr %3, align 8
  br i1 %.not8, label %36, label %33

33:                                               ; preds = %29
  call void (i32, ptr, ...) @zend_argument_value_error(i32 noundef 2, ptr noundef nonnull @.str.7, ptr noundef nonnull @.str.10, ptr noundef %32) #11
  %34 = load ptr, ptr getelementptr inbounds (%struct._zend_executor_globals, ptr @executor_globals, i64 0, i32 50), align 8
  %35 = icmp ne ptr %34, null
  call void @llvm.assume(i1 %35)
  br label %41

36:                                               ; preds = %29
  %37 = load ptr, ptr %4, align 8
  %38 = call i32 @xmlTextWriterWriteDTDElement(ptr noundef nonnull %25, ptr noundef %32, ptr noundef %37) #11
  %.not9 = icmp eq i32 %38, -1
  %39 = select i1 %.not9, i32 2, i32 3
  %40 = getelementptr inbounds i8, ptr %1, i64 8
  store i32 %39, ptr %40, align 8
  br label %41

41:                                               ; preds = %36, %33, %26, %18
  ret void
}